target datalayout = "e-m:e-p270:32:32-p271:32:32-p272:64:64-i64:64-i128:128-f80:128-n8:16:32:64-S128"
target triple = "x86_64-pc-linux-gnu"

%"class.doctest::String" = type { %union.anon.7 }
%union.anon.7 = type { %"struct.doctest::String::view", [8 x i8] }
%"struct.doctest::String::view" = type { ptr, i32, i32 }

; Function Attrs: mustprogress nounwind uwtable
define linkonce_odr dso_local noundef zeroext i1 @_ZNK7doctest6String9isOnStackEv(ptr noundef nonnull align 8 dereferenceable(24) %0) #1 comdat align 2 {
  %2 = alloca ptr, align 8
  store ptr %0, ptr %2, align 8, !tbaa !59
  %3 = load ptr, ptr %2, align 8
  %4 = getelementptr inbounds nuw %"class.doctest::String", ptr %3, i32 0, i32 0
  %5 = getelementptr inbounds nuw [24 x i8], ptr %4, i64 0, i64 23
  %6 = load i8, ptr %5, align 1, !tbaa !55
  %7 = sext i8 %6 to i32
  %8 = and i32 %7, 128
  %9 = icmp eq i32 %8, 0
  ret i1 %9
}

; Function Attrs: mustprogress nounwind uwtable
define dso_local void @_ZN7doctest6StringD2Ev(ptr noundef nonnull align 8 dereferenceable(24) %0) unnamed_addr #1 align 2 {
  %2 = alloca ptr, align 8
  store ptr %0, ptr %2, align 8, !tbaa !59
  %3 = load ptr, ptr %2, align 8
  %4 = call noundef zeroext i1 @_ZNK7doctest6String9isOnStackEv(ptr noundef nonnull align 8 dereferenceable(24) %3) #7
  br i1 %4, label %12, label %5

5:                                                ; preds = %1
  %6 = getelementptr inbounds nuw %"class.doctest::String", ptr %3, i32 0, i32 0
  %7 = getelementptr inbounds nuw %"struct.doctest::String::view", ptr %6, i32 0, i32 0
  %8 = load ptr, ptr %7, align 8, !tbaa !55
  %9 = icmp eq ptr %8, null
  br i1 %9, label %11, label %10

10:                                               ; preds = %5
  call void @_ZdaPv(ptr noundef %8) #31
  br label %11

11:                                               ; preds = %10, %5
  br label %12

12:                                               ; preds = %11, %1
  ret void
}