; Function Attrs: mustprogress nounwind uwtable
define dso_local void @_ZN7doctest6StringD2Ev(ptr noundef nonnull readonly align 8 captures(none) dereferenceable(24) %0) unnamed_addr #7 align 2 {
  %2 = getelementptr inbounds nuw i8, ptr %0, i64 23
  %3 = load i8, ptr %2, align 1, !tbaa !38
  %4 = icmp sgt i8 %3, -1
  br i1 %4, label %9, label %5

5:                                                ; preds = %1
  %6 = load ptr, ptr %0, align 8, !tbaa !38
  %7 = icmp eq ptr %6, null
  br i1 %7, label %9, label %8

8:                                                ; preds = %5
  tail call void @_ZdaPv(ptr noundef nonnull %6) #48
  br label %9

9:                                                ; preds = %5, %8, %1
  ret void
}